ARM GAS  C:\Users\Tech\AppData\Local\Temp\cceP60zw.s 			page 1


   1              		.syntax unified
   2              		.cpu cortex-m0
   3              		.fpu softvfp
   4              		.eabi_attribute 20, 1
   5              		.eabi_attribute 21, 1
   6              		.eabi_attribute 23, 3
   7              		.eabi_attribute 24, 1
   8              		.eabi_attribute 25, 1
   9              		.eabi_attribute 26, 1
  10              		.eabi_attribute 30, 6
  11              		.eabi_attribute 34, 0
  12              		.eabi_attribute 18, 4
  13              		.thumb
  14              		.syntax unified
  15              		.file	"main.c"
  16              		.text
  17              	.Ltext0:
  18              		.cfi_sections	.debug_frame
  19              		.global	count
  20              		.bss
  21              		.align	1
  22              		.type	count, %object
  23              		.size	count, 2
  24              	count:
  25 0000 0000     		.space	2
  26              		.section	.text.main,"ax",%progbits
  27              		.align	2
  28              		.global	main
  29              		.code	16
  30              		.thumb_func
  31              		.type	main, %function
  32              	main:
  33              	.LFB35:
  34              		.file 1 "main.c"
   1:main.c        **** /* ========================================
   2:main.c        ****  *
   3:main.c        ****  * Copyright YOUR COMPANY, THE YEAR
   4:main.c        ****  * All Rights Reserved
   5:main.c        ****  * UNPUBLISHED, LICENSED SOFTWARE.
   6:main.c        ****  *
   7:main.c        ****  * CONFIDENTIAL AND PROPRIETARY INFORMATION
   8:main.c        ****  * WHICH IS THE PROPERTY OF your company.
   9:main.c        ****  *
  10:main.c        ****  * ========================================
  11:main.c        **** */
  12:main.c        **** #include <project.h>
  13:main.c        **** 
  14:main.c        **** /***************************************
  15:main.c        **** *        API Constants
  16:main.c        **** ***************************************/
  17:main.c        **** #define LED_ON                                      (0u)
  18:main.c        **** #define LED_OFF                                     (1u)
  19:main.c        **** 
  20:main.c        **** #define LOOP_DELAY                                  (1u)  /* How often would you like to update the
  21:main.c        **** 
  22:main.c        **** /* ADV payload dta structure */   
  23:main.c        **** #define advPayload                                  (cyBle_discoveryModeInfo.advData->advData) 
ARM GAS  C:\Users\Tech\AppData\Local\Temp\cceP60zw.s 			page 2


  24:main.c        **** 
  25:main.c        **** /***************************************
  26:main.c        **** *        Function Prototypes
  27:main.c        **** ***************************************/
  28:main.c        **** void InitializeSystem(void);
  29:main.c        **** void StackEventHandler(uint32 event, void* eventParam);
  30:main.c        **** void EnterLowPowerMode(void);
  31:main.c        **** void DynamicADVPayloadUpdate(void);
  32:main.c        **** 
  33:main.c        **** /***************************************
  34:main.c        **** *        Global variables
  35:main.c        **** ***************************************/
  36:main.c        **** uint16 count = 0;
  37:main.c        **** 
  38:main.c        **** int main (void)
  39:main.c        **** {
  35              		.loc 1 39 0
  36              		.cfi_startproc
  37              		@ args = 0, pretend = 0, frame = 0
  38              		@ frame_needed = 1, uses_anonymous_args = 0
  39 0000 80B5     		push	{r7, lr}
  40              		.cfi_def_cfa_offset 8
  41              		.cfi_offset 7, -8
  42              		.cfi_offset 14, -4
  43 0002 00AF     		add	r7, sp, #0
  44              		.cfi_def_cfa_register 7
  40:main.c        ****     InitializeSystem();
  45              		.loc 1 40 0
  46 0004 FFF7FEFF 		bl	InitializeSystem
  41:main.c        ****     
  42:main.c        ****     LED_R_Write(LED_ON);
  47              		.loc 1 42 0
  48 0008 0020     		movs	r0, #0
  49 000a FFF7FEFF 		bl	LED_R_Write
  43:main.c        ****     CyDelay(500);
  50              		.loc 1 43 0
  51 000e FA23     		movs	r3, #250
  52 0010 5B00     		lsls	r3, r3, #1
  53 0012 1800     		movs	r0, r3
  54 0014 FFF7FEFF 		bl	CyDelay
  44:main.c        ****     LED_R_Write(LED_OFF);
  55              		.loc 1 44 0
  56 0018 0120     		movs	r0, #1
  57 001a FFF7FEFF 		bl	LED_R_Write
  58              	.L2:
  45:main.c        ****     
  46:main.c        ****     for(;;)
  47:main.c        ****     {
  48:main.c        ****         /* Single API call to service all the BLE stack events. Must be
  49:main.c        ****          * called at least once in a BLE connection interval */
  50:main.c        ****         CyBle_ProcessEvents();
  59              		.loc 1 50 0 discriminator 1
  60 001e FFF7FEFF 		bl	CyBle_ProcessEvents
  51:main.c        ****         
  52:main.c        ****         LED_R_Write(LED_OFF);
  61              		.loc 1 52 0 discriminator 1
  62 0022 0120     		movs	r0, #1
ARM GAS  C:\Users\Tech\AppData\Local\Temp\cceP60zw.s 			page 3


  63 0024 FFF7FEFF 		bl	LED_R_Write
  53:main.c        ****         
  54:main.c        ****         /* Configure the system in lowest possible power modes during and between BLE ADV events */
  55:main.c        ****         EnterLowPowerMode();
  64              		.loc 1 55 0 discriminator 1
  65 0028 FFF7FEFF 		bl	EnterLowPowerMode
  56:main.c        ****         
  57:main.c        ****         LED_R_Write(LED_ON);
  66              		.loc 1 57 0 discriminator 1
  67 002c 0020     		movs	r0, #0
  68 002e FFF7FEFF 		bl	LED_R_Write
  58:main.c        ****         
  59:main.c        ****         DynamicADVPayloadUpdate();
  69              		.loc 1 59 0 discriminator 1
  70 0032 FFF7FEFF 		bl	DynamicADVPayloadUpdate
  60:main.c        ****     }
  71              		.loc 1 60 0 discriminator 1
  72 0036 F2E7     		b	.L2
  73              		.cfi_endproc
  74              	.LFE35:
  75              		.size	main, .-main
  76              		.section	.text.InitializeSystem,"ax",%progbits
  77              		.align	2
  78              		.global	InitializeSystem
  79              		.code	16
  80              		.thumb_func
  81              		.type	InitializeSystem, %function
  82              	InitializeSystem:
  83              	.LFB36:
  61:main.c        **** }
  62:main.c        **** 
  63:main.c        **** 
  64:main.c        **** /*******************************************************************************
  65:main.c        **** * Function Name: InitializeSystem
  66:main.c        **** ********************************************************************************
  67:main.c        **** *
  68:main.c        **** * Summary:
  69:main.c        **** *  This routine initializes all the componnets and firmware state.
  70:main.c        **** *
  71:main.c        **** * Parameters:
  72:main.c        **** *  None
  73:main.c        **** *
  74:main.c        **** * Return:
  75:main.c        **** *  None
  76:main.c        **** *
  77:main.c        **** *******************************************************************************/
  78:main.c        **** void InitializeSystem(void)
  79:main.c        **** {
  84              		.loc 1 79 0
  85              		.cfi_startproc
  86              		@ args = 0, pretend = 0, frame = 8
  87              		@ frame_needed = 1, uses_anonymous_args = 0
  88 0000 90B5     		push	{r4, r7, lr}
  89              		.cfi_def_cfa_offset 12
  90              		.cfi_offset 4, -12
  91              		.cfi_offset 7, -8
  92              		.cfi_offset 14, -4
ARM GAS  C:\Users\Tech\AppData\Local\Temp\cceP60zw.s 			page 4


  93 0002 83B0     		sub	sp, sp, #12
  94              		.cfi_def_cfa_offset 24
  95 0004 00AF     		add	r7, sp, #0
  96              		.cfi_def_cfa_register 7
  80:main.c        ****     CYBLE_API_RESULT_T apiResult;
  81:main.c        **** 
  82:main.c        ****     CyGlobalIntEnable;
  97              		.loc 1 82 0
  98              		.syntax divided
  99              	@ 82 "main.c" 1
 100 0006 62B6     		CPSIE   i
 101              	@ 0 "" 2
  83:main.c        **** 
  84:main.c        ****     apiResult = CyBle_Start(StackEventHandler); /* Init the BLE stack and register an applicaiton c
 102              		.loc 1 84 0
 103              		.thumb
 104              		.syntax unified
 105 0008 BC1D     		adds	r4, r7, #6
 106 000a 0B4B     		ldr	r3, .L5
 107 000c 1800     		movs	r0, r3
 108 000e FFF7FEFF 		bl	CyBle_Start
 109 0012 0300     		movs	r3, r0
 110 0014 2380     		strh	r3, [r4]
  85:main.c        **** 
  86:main.c        ****     if(apiResult != CYBLE_ERROR_OK)
 111              		.loc 1 86 0
 112 0016 BB1D     		adds	r3, r7, #6
 113 0018 1B88     		ldrh	r3, [r3]
 114 001a 002B     		cmp	r3, #0
 115 001c 02D0     		beq	.L4
  87:main.c        ****     {
  88:main.c        ****         /* BLE stack initialization failed, check your configuration */
  89:main.c        ****         CYASSERT(0);
 116              		.loc 1 89 0 discriminator 1
 117 001e 0020     		movs	r0, #0
 118 0020 FFF7FEFF 		bl	CyHalt
 119              	.L4:
  90:main.c        ****     }
  91:main.c        ****     
  92:main.c        ****     /* Set XTAL divider to 3MHz mode */
  93:main.c        ****     CySysClkWriteEcoDiv(CY_SYS_CLK_ECO_DIV8); 
 120              		.loc 1 93 0
 121 0024 0320     		movs	r0, #3
 122 0026 FFF7FEFF 		bl	CySysClkWriteEcoDiv
  94:main.c        ****     
  95:main.c        ****     /* ILO is no longer required, shut it down */
  96:main.c        ****     CySysClkIloStop();
 123              		.loc 1 96 0
 124 002a FFF7FEFF 		bl	CySysClkIloStop
  97:main.c        **** }
 125              		.loc 1 97 0
 126 002e C046     		nop
 127 0030 BD46     		mov	sp, r7
 128 0032 03B0     		add	sp, sp, #12
 129              		@ sp needed
 130 0034 90BD     		pop	{r4, r7, pc}
 131              	.L6:
ARM GAS  C:\Users\Tech\AppData\Local\Temp\cceP60zw.s 			page 5


 132 0036 C046     		.align	2
 133              	.L5:
 134 0038 00000000 		.word	StackEventHandler
 135              		.cfi_endproc
 136              	.LFE36:
 137              		.size	InitializeSystem, .-InitializeSystem
 138              		.section	.text.EnterLowPowerMode,"ax",%progbits
 139              		.align	2
 140              		.global	EnterLowPowerMode
 141              		.code	16
 142              		.thumb_func
 143              		.type	EnterLowPowerMode, %function
 144              	EnterLowPowerMode:
 145              	.LFB37:
  98:main.c        **** 
  99:main.c        **** /*******************************************************************************
 100:main.c        **** * Function Name: EnterLowPowerMode
 101:main.c        **** ********************************************************************************
 102:main.c        **** *
 103:main.c        **** * Summary:
 104:main.c        **** *  This configures the BLESS and system in low power mode whenever possible.
 105:main.c        **** *
 106:main.c        **** * Parameters:
 107:main.c        **** *  None
 108:main.c        **** *
 109:main.c        **** * Return:
 110:main.c        **** *  None
 111:main.c        **** *
 112:main.c        **** *******************************************************************************/
 113:main.c        **** void EnterLowPowerMode(void)
 114:main.c        **** {
 146              		.loc 1 114 0
 147              		.cfi_startproc
 148              		@ args = 0, pretend = 0, frame = 8
 149              		@ frame_needed = 1, uses_anonymous_args = 0
 150 0000 90B5     		push	{r4, r7, lr}
 151              		.cfi_def_cfa_offset 12
 152              		.cfi_offset 4, -12
 153              		.cfi_offset 7, -8
 154              		.cfi_offset 14, -4
 155 0002 83B0     		sub	sp, sp, #12
 156              		.cfi_def_cfa_offset 24
 157 0004 00AF     		add	r7, sp, #0
 158              		.cfi_def_cfa_register 7
 115:main.c        ****     CYBLE_BLESS_STATE_T blessState;
 116:main.c        ****     uint8 intrStatus;
 117:main.c        ****     
 118:main.c        ****     /* Configure BLESS in Deep-Sleep mode */
 119:main.c        ****     CyBle_EnterLPM(CYBLE_BLESS_DEEPSLEEP);
 159              		.loc 1 119 0
 160 0006 0320     		movs	r0, #3
 161 0008 FFF7FEFF 		bl	CyBle_EnterLPM
 120:main.c        ****     
 121:main.c        ****     /* Prevent interrupts while entering system low power modes */
 122:main.c        ****     intrStatus = CyEnterCriticalSection();
 162              		.loc 1 122 0
 163 000c FC1D     		adds	r4, r7, #7
ARM GAS  C:\Users\Tech\AppData\Local\Temp\cceP60zw.s 			page 6


 164 000e FFF7FEFF 		bl	CyEnterCriticalSection
 165 0012 0300     		movs	r3, r0
 166 0014 2370     		strb	r3, [r4]
 123:main.c        ****     
 124:main.c        ****     /* Get the current state of BLESS block */
 125:main.c        ****     blessState = CyBle_GetBleSsState();
 167              		.loc 1 125 0
 168 0016 BC1D     		adds	r4, r7, #6
 169 0018 FFF7FEFF 		bl	CyBle_GetBleSsState
 170 001c 0300     		movs	r3, r0
 171 001e 2370     		strb	r3, [r4]
 126:main.c        ****     
 127:main.c        ****     /* If BLESS is in Deep-Sleep mode or the XTAL oscillator is turning on, 
 128:main.c        ****      * then PSoC 4 BLE can enter Deep-Sleep mode (1.3uA current consumption) */
 129:main.c        ****     if(blessState == CYBLE_BLESS_STATE_ECO_ON || 
 172              		.loc 1 129 0
 173 0020 BB1D     		adds	r3, r7, #6
 174 0022 1B78     		ldrb	r3, [r3]
 175 0024 042B     		cmp	r3, #4
 176 0026 03D0     		beq	.L8
 177              		.loc 1 129 0 is_stmt 0 discriminator 1
 178 0028 BB1D     		adds	r3, r7, #6
 179 002a 1B78     		ldrb	r3, [r3]
 180 002c 062B     		cmp	r3, #6
 181 002e 02D1     		bne	.L9
 182              	.L8:
 130:main.c        ****         blessState == CYBLE_BLESS_STATE_DEEPSLEEP)
 131:main.c        ****     {
 132:main.c        ****         CySysPmDeepSleep();
 183              		.loc 1 132 0 is_stmt 1
 184 0030 FFF7FEFF 		bl	CySysPmDeepSleep
 185 0034 0FE0     		b	.L10
 186              	.L9:
 133:main.c        ****     }
 134:main.c        ****     else if(blessState != CYBLE_BLESS_STATE_EVENT_CLOSE)
 187              		.loc 1 134 0
 188 0036 BB1D     		adds	r3, r7, #6
 189 0038 1B78     		ldrb	r3, [r3]
 190 003a 022B     		cmp	r3, #2
 191 003c 0BD0     		beq	.L10
 135:main.c        ****     {
 136:main.c        ****         /* If BLESS is active, then configure PSoC 4 BLE system in 
 137:main.c        ****          * Sleep mode (~1.6mA current consumption) */
 138:main.c        ****         CySysClkWriteHfclkDirect(CY_SYS_CLK_HFCLK_ECO);
 192              		.loc 1 138 0
 193 003e 0220     		movs	r0, #2
 194 0040 FFF7FEFF 		bl	CySysClkWriteHfclkDirect
 139:main.c        ****         CySysClkImoStop();
 195              		.loc 1 139 0
 196 0044 FFF7FEFF 		bl	CySysClkImoStop
 140:main.c        ****         CySysPmSleep();
 197              		.loc 1 140 0
 198 0048 FFF7FEFF 		bl	CySysPmSleep
 141:main.c        ****         CySysClkImoStart();
 199              		.loc 1 141 0
 200 004c FFF7FEFF 		bl	CySysClkImoStart
 142:main.c        ****         CySysClkWriteHfclkDirect(CY_SYS_CLK_HFCLK_IMO);
ARM GAS  C:\Users\Tech\AppData\Local\Temp\cceP60zw.s 			page 7


 201              		.loc 1 142 0
 202 0050 0020     		movs	r0, #0
 203 0052 FFF7FEFF 		bl	CySysClkWriteHfclkDirect
 204              	.L10:
 143:main.c        ****     }
 144:main.c        ****     else
 145:main.c        ****     {
 146:main.c        ****         /* Keep trying to enter either Sleep or Deep-Sleep mode */    
 147:main.c        ****     }
 148:main.c        ****     
 149:main.c        ****     CyExitCriticalSection(intrStatus);
 205              		.loc 1 149 0
 206 0056 FB1D     		adds	r3, r7, #7
 207 0058 1B78     		ldrb	r3, [r3]
 208 005a 1800     		movs	r0, r3
 209 005c FFF7FEFF 		bl	CyExitCriticalSection
 150:main.c        **** }
 210              		.loc 1 150 0
 211 0060 C046     		nop
 212 0062 BD46     		mov	sp, r7
 213 0064 03B0     		add	sp, sp, #12
 214              		@ sp needed
 215 0066 90BD     		pop	{r4, r7, pc}
 216              		.cfi_endproc
 217              	.LFE37:
 218              		.size	EnterLowPowerMode, .-EnterLowPowerMode
 219              		.section	.text.StackEventHandler,"ax",%progbits
 220              		.align	2
 221              		.global	StackEventHandler
 222              		.code	16
 223              		.thumb_func
 224              		.type	StackEventHandler, %function
 225              	StackEventHandler:
 226              	.LFB38:
 151:main.c        **** 
 152:main.c        **** 
 153:main.c        **** /*******************************************************************************
 154:main.c        **** * Function Name: StackEventHandler
 155:main.c        **** ********************************************************************************
 156:main.c        **** *
 157:main.c        **** * Summary:
 158:main.c        **** *  This is an event callback function to receive events from the BLE Component.
 159:main.c        **** *
 160:main.c        **** * Parameters:
 161:main.c        **** *  uint8 event:       Event from the CYBLE component
 162:main.c        **** *  void* eventParams: A structure instance for corresponding event type. The
 163:main.c        **** *                     list of event structure is described in the component
 164:main.c        **** *                     datasheet.
 165:main.c        **** *
 166:main.c        **** * Return:
 167:main.c        **** *  None
 168:main.c        **** *
 169:main.c        **** *******************************************************************************/
 170:main.c        **** void StackEventHandler(uint32 event, void *eventParam)
 171:main.c        **** {
 227              		.loc 1 171 0
 228              		.cfi_startproc
ARM GAS  C:\Users\Tech\AppData\Local\Temp\cceP60zw.s 			page 8


 229              		@ args = 0, pretend = 0, frame = 8
 230              		@ frame_needed = 1, uses_anonymous_args = 0
 231 0000 80B5     		push	{r7, lr}
 232              		.cfi_def_cfa_offset 8
 233              		.cfi_offset 7, -8
 234              		.cfi_offset 14, -4
 235 0002 82B0     		sub	sp, sp, #8
 236              		.cfi_def_cfa_offset 16
 237 0004 00AF     		add	r7, sp, #0
 238              		.cfi_def_cfa_register 7
 239 0006 7860     		str	r0, [r7, #4]
 240 0008 3960     		str	r1, [r7]
 172:main.c        ****     switch(event)
 241              		.loc 1 172 0
 242 000a 7B68     		ldr	r3, [r7, #4]
 243 000c 262B     		cmp	r3, #38
 244 000e 08D0     		beq	.L16
 245 0010 282B     		cmp	r3, #40
 246 0012 02D0     		beq	.L14
 247 0014 012B     		cmp	r3, #1
 248 0016 00D0     		beq	.L14
 173:main.c        ****     {
 174:main.c        ****         /* Mandatory events to be handled by Find Me Target design */
 175:main.c        ****         case CYBLE_EVT_STACK_ON:
 176:main.c        ****         case CYBLE_EVT_GAP_DEVICE_DISCONNECTED:
 177:main.c        ****             /* Start BLE advertisement for 30 seconds and update link
 178:main.c        ****              * status on LEDs */
 179:main.c        ****             CyBle_GappStartAdvertisement(CYBLE_ADVERTISING_SLOW);
 180:main.c        ****             //LED_R_Write(LED_ON);
 181:main.c        ****           break;
 182:main.c        **** 
 183:main.c        ****         case CYBLE_EVT_GAPP_ADVERTISEMENT_START_STOP:
 184:main.c        ****             if(CyBle_GetState() == CYBLE_STATE_DISCONNECTED)
 185:main.c        ****             {
 186:main.c        ****                 /* Advertisement event timed out, go to low power
 187:main.c        ****                  * mode (Hibernate mode) and wait for an external
 188:main.c        ****                  * user event to wake up the device again */
 189:main.c        ****                 //LED_R_Write(LED_OFF);
 190:main.c        ****             }
 191:main.c        ****             break;
 192:main.c        **** 
 193:main.c        ****         default:
 194:main.c        ****         break;
 249              		.loc 1 194 0
 250 0018 04E0     		b	.L15
 251              	.L14:
 179:main.c        ****             //LED_R_Write(LED_ON);
 252              		.loc 1 179 0
 253 001a 0120     		movs	r0, #1
 254 001c FFF7FEFF 		bl	CyBle_GappStartAdvertisement
 181:main.c        **** 
 255              		.loc 1 181 0
 256 0020 00E0     		b	.L15
 257              	.L16:
 191:main.c        **** 
 258              		.loc 1 191 0
 259 0022 C046     		nop
ARM GAS  C:\Users\Tech\AppData\Local\Temp\cceP60zw.s 			page 9


 260              	.L15:
 195:main.c        ****     }
 196:main.c        **** }
 261              		.loc 1 196 0
 262 0024 C046     		nop
 263 0026 BD46     		mov	sp, r7
 264 0028 02B0     		add	sp, sp, #8
 265              		@ sp needed
 266 002a 80BD     		pop	{r7, pc}
 267              		.cfi_endproc
 268              	.LFE38:
 269              		.size	StackEventHandler, .-StackEventHandler
 270              		.section	.text.DynamicADVPayloadUpdate,"ax",%progbits
 271              		.align	2
 272              		.global	DynamicADVPayloadUpdate
 273              		.code	16
 274              		.thumb_func
 275              		.type	DynamicADVPayloadUpdate, %function
 276              	DynamicADVPayloadUpdate:
 277              	.LFB39:
 197:main.c        **** 
 198:main.c        **** /*******************************************************************************
 199:main.c        **** * Function Name: DynamicADVPayloadUpdate
 200:main.c        **** ********************************************************************************
 201:main.c        **** *
 202:main.c        **** * Summary:
 203:main.c        **** *  This routine dynamically updates the BLE advertisement packet
 204:main.c        **** *
 205:main.c        **** * Parameters:
 206:main.c        **** *  None
 207:main.c        **** *
 208:main.c        **** * Return:
 209:main.c        **** *  None
 210:main.c        **** *
 211:main.c        **** *******************************************************************************/
 212:main.c        **** void DynamicADVPayloadUpdate(void)
 213:main.c        **** {
 278              		.loc 1 213 0
 279              		.cfi_startproc
 280              		@ args = 0, pretend = 0, frame = 0
 281              		@ frame_needed = 1, uses_anonymous_args = 0
 282 0000 80B5     		push	{r7, lr}
 283              		.cfi_def_cfa_offset 8
 284              		.cfi_offset 7, -8
 285              		.cfi_offset 14, -4
 286 0002 00AF     		add	r7, sp, #0
 287              		.cfi_def_cfa_register 7
 214:main.c        ****     if(CyBle_GetBleSsState() == CYBLE_BLESS_STATE_EVENT_CLOSE)
 288              		.loc 1 214 0
 289 0004 FFF7FEFF 		bl	CyBle_GetBleSsState
 290 0008 0300     		movs	r3, r0
 291 000a 022B     		cmp	r3, #2
 292 000c 1CD1     		bne	.L20
 215:main.c        ****     {
 216:main.c        ****         count++; /* Loop counter */
 293              		.loc 1 216 0
 294 000e 104B     		ldr	r3, .L21
ARM GAS  C:\Users\Tech\AppData\Local\Temp\cceP60zw.s 			page 10


 295 0010 1B88     		ldrh	r3, [r3]
 296 0012 0133     		adds	r3, r3, #1
 297 0014 9AB2     		uxth	r2, r3
 298 0016 0E4B     		ldr	r3, .L21
 299 0018 1A80     		strh	r2, [r3]
 217:main.c        ****         if (count > 9) {
 300              		.loc 1 217 0
 301 001a 0D4B     		ldr	r3, .L21
 302 001c 1B88     		ldrh	r3, [r3]
 303 001e 092B     		cmp	r3, #9
 304 0020 02D9     		bls	.L19
 218:main.c        ****             count = 0;
 305              		.loc 1 218 0
 306 0022 0B4B     		ldr	r3, .L21
 307 0024 0022     		movs	r2, #0
 308 0026 1A80     		strh	r2, [r3]
 309              	.L19:
 219:main.c        ****         }
 220:main.c        ****         
 221:main.c        ****         /* Once the system enters Sleep/Deepsleep mode during advertisement, the source of wake-up 
 222:main.c        ****          * advertisement interval which has a wakeup interval of 1 advertisement (ADV) interval (10
 223:main.c        ****          * LOOP_DELAY * ADV interval is the interval after which ADV data is updated in this firmwa
 224:main.c        ****         
 225:main.c        ****         advPayload[9] = (uint8_t)count + '0';
 310              		.loc 1 225 0
 311 0028 0A4B     		ldr	r3, .L21+4
 312 002a 9B68     		ldr	r3, [r3, #8]
 313 002c 084A     		ldr	r2, .L21
 314 002e 1288     		ldrh	r2, [r2]
 315 0030 D2B2     		uxtb	r2, r2
 316 0032 3032     		adds	r2, r2, #48
 317 0034 D2B2     		uxtb	r2, r2
 318 0036 5A72     		strb	r2, [r3, #9]
 226:main.c        ****         
 227:main.c        ****         CyBle_GapUpdateAdvData(cyBle_discoveryModeInfo.advData, cyBle_discoveryModeInfo.scanRspData
 319              		.loc 1 227 0
 320 0038 064B     		ldr	r3, .L21+4
 321 003a 9A68     		ldr	r2, [r3, #8]
 322 003c 054B     		ldr	r3, .L21+4
 323 003e DB68     		ldr	r3, [r3, #12]
 324 0040 1900     		movs	r1, r3
 325 0042 1000     		movs	r0, r2
 326 0044 FFF7FEFF 		bl	CyBle_GapUpdateAdvData
 327              	.L20:
 228:main.c        ****         
 229:main.c        **** //        if(count >= LOOP_DELAY)
 230:main.c        **** //        {   
 231:main.c        **** //            CyBle_GapUpdateAdvData(cyBle_discoveryModeInfo.advData, cyBle_discoveryModeInfo.scanR
 232:main.c        **** //        }
 233:main.c        ****     }
 234:main.c        **** }
 328              		.loc 1 234 0
 329 0048 C046     		nop
 330 004a BD46     		mov	sp, r7
 331              		@ sp needed
 332 004c 80BD     		pop	{r7, pc}
 333              	.L22:
ARM GAS  C:\Users\Tech\AppData\Local\Temp\cceP60zw.s 			page 11


 334 004e C046     		.align	2
 335              	.L21:
 336 0050 00000000 		.word	count
 337 0054 00000000 		.word	cyBle_discoveryModeInfo
 338              		.cfi_endproc
 339              	.LFE39:
 340              		.size	DynamicADVPayloadUpdate, .-DynamicADVPayloadUpdate
 341              		.text
 342              	.Letext0:
 343              		.file 2 "c:\\program files (x86)\\cypress\\psoc creator\\4.4\\psoc creator\\import\\gnu\\arm\\5.4.
 344              		.file 3 "c:\\program files (x86)\\cypress\\psoc creator\\4.4\\psoc creator\\import\\gnu\\arm\\5.4.
 345              		.file 4 "Generated_Source\\PSoC4/cytypes.h"
 346              		.file 5 "Generated_Source\\PSoC4/BLE_Stack.h"
 347              		.file 6 "Generated_Source\\PSoC4/BLE_StackGap.h"
 348              		.file 7 "Generated_Source\\PSoC4/BLE_eventHandler.h"
 349              		.file 8 "Generated_Source\\PSoC4/BLE.h"